target datalayout = "e-m:e-p270:32:32-p271:32:32-p272:64:64-i64:64-i128:128-f80:128-n8:16:32:64-S128"
target triple = "x86_64-pc-linux-gnu"

%struct.lua_TValue = type { %union.Value, i32 }
%union.Value = type { ptr }
%union.TString = type { %struct.anon }
%struct.anon = type { ptr, i8, i8, i8, i32, i64 }

; Function Attrs: nounwind uwtable
define internal i32 @l_strcmp(ptr noundef %0, ptr noundef %1) #0 {
  %3 = alloca i32, align 4
  %4 = alloca ptr, align 8
  %5 = alloca ptr, align 8
  %6 = alloca ptr, align 8
  %7 = alloca i64, align 8
  %8 = alloca ptr, align 8
  %9 = alloca i64, align 8
  %10 = alloca i32, align 4
  %11 = alloca i32, align 4
  %12 = alloca i64, align 8
  store ptr %0, ptr %4, align 8, !tbaa !33
  store ptr %1, ptr %5, align 8, !tbaa !33
  call void @llvm.lifetime.start.p0(i64 8, ptr %6) #7
  %13 = load ptr, ptr %4, align 8, !tbaa !33
  %14 = getelementptr inbounds %union.TString, ptr %13, i64 1
  store ptr %14, ptr %6, align 8, !tbaa !44
  call void @llvm.lifetime.start.p0(i64 8, ptr %7) #7
  %15 = load ptr, ptr %4, align 8, !tbaa !33
  %16 = getelementptr inbounds nuw %struct.anon, ptr %15, i32 0, i32 5
  %17 = load i64, ptr %16, align 8, !tbaa !12
  store i64 %17, ptr %7, align 8, !tbaa !39
  call void @llvm.lifetime.start.p0(i64 8, ptr %8) #7
  %18 = load ptr, ptr %5, align 8, !tbaa !33
  %19 = getelementptr inbounds %union.TString, ptr %18, i64 1
  store ptr %19, ptr %8, align 8, !tbaa !44
  call void @llvm.lifetime.start.p0(i64 8, ptr %9) #7
  %20 = load ptr, ptr %5, align 8, !tbaa !33
  %21 = getelementptr inbounds nuw %struct.anon, ptr %20, i32 0, i32 5
  %22 = load i64, ptr %21, align 8, !tbaa !12
  store i64 %22, ptr %9, align 8, !tbaa !39
  br label %23

23:                                               ; preds = %69, %2
  call void @llvm.lifetime.start.p0(i64 4, ptr %10) #7
  %24 = load ptr, ptr %6, align 8, !tbaa !44
  %25 = load ptr, ptr %8, align 8, !tbaa !44
  %26 = call i32 @strcoll(ptr noundef %24, ptr noundef %25) #8
  store i32 %26, ptr %10, align 4, !tbaa !17
  %27 = load i32, ptr %10, align 4, !tbaa !17
  %28 = icmp ne i32 %27, 0
  br i1 %28, label %29, label %31

29:                                               ; preds = %23
  %30 = load i32, ptr %10, align 4, !tbaa !17
  store i32 %30, ptr %3, align 4
  store i32 1, ptr %11, align 4
  br label %67

31:                                               ; preds = %23
  call void @llvm.lifetime.start.p0(i64 8, ptr %12) #7
  %32 = load ptr, ptr %6, align 8, !tbaa !44
  %33 = call i64 @strlen(ptr noundef %32) #8
  store i64 %33, ptr %12, align 8, !tbaa !39
  %34 = load i64, ptr %12, align 8, !tbaa !39
  %35 = load i64, ptr %9, align 8, !tbaa !39
  %36 = icmp eq i64 %34, %35
  br i1 %36, label %37, label %42

37:                                               ; preds = %31
  %38 = load i64, ptr %12, align 8, !tbaa !39
  %39 = load i64, ptr %7, align 8, !tbaa !39
  %40 = icmp eq i64 %38, %39
  %41 = select i1 %40, i32 0, i32 1
  store i32 %41, ptr %3, align 4
  store i32 1, ptr %11, align 4
  br label %63

42:                                               ; preds = %31
  %43 = load i64, ptr %12, align 8, !tbaa !39
  %44 = load i64, ptr %7, align 8, !tbaa !39
  %45 = icmp eq i64 %43, %44
  br i1 %45, label %46, label %47

46:                                               ; preds = %42
  store i32 -1, ptr %3, align 4
  store i32 1, ptr %11, align 4
  br label %63

47:                                               ; preds = %42
  br label %48

48:                                               ; preds = %47
  %49 = load i64, ptr %12, align 8, !tbaa !39
  %50 = add i64 %49, 1
  store i64 %50, ptr %12, align 8, !tbaa !39
  %51 = load i64, ptr %12, align 8, !tbaa !39
  %52 = load ptr, ptr %6, align 8, !tbaa !44
  %53 = getelementptr inbounds nuw i8, ptr %52, i64 %51
  store ptr %53, ptr %6, align 8, !tbaa !44
  %54 = load i64, ptr %12, align 8, !tbaa !39
  %55 = load i64, ptr %7, align 8, !tbaa !39
  %56 = sub i64 %55, %54
  store i64 %56, ptr %7, align 8, !tbaa !39
  %57 = load i64, ptr %12, align 8, !tbaa !39
  %58 = load ptr, ptr %8, align 8, !tbaa !44
  %59 = getelementptr inbounds nuw i8, ptr %58, i64 %57
  store ptr %59, ptr %8, align 8, !tbaa !44
  %60 = load i64, ptr %12, align 8, !tbaa !39
  %61 = load i64, ptr %9, align 8, !tbaa !39
  %62 = sub i64 %61, %60
  store i64 %62, ptr %9, align 8, !tbaa !39
  store i32 0, ptr %11, align 4
  br label %63

63:                                               ; preds = %48, %46, %37
  call void @llvm.lifetime.end.p0(i64 8, ptr %12) #7
  %64 = load i32, ptr %11, align 4
  switch i32 %64, label %67 [
    i32 0, label %65
  ]

65:                                               ; preds = %63
  br label %66

66:                                               ; preds = %65
  store i32 0, ptr %11, align 4
  br label %67

67:                                               ; preds = %66, %63, %29
  call void @llvm.lifetime.end.p0(i64 4, ptr %10) #7
  %68 = load i32, ptr %11, align 4
  switch i32 %68, label %70 [
    i32 0, label %69
  ]

69:                                               ; preds = %67
  br label %23

70:                                               ; preds = %67
  call void @llvm.lifetime.end.p0(i64 8, ptr %9) #7
  call void @llvm.lifetime.end.p0(i64 8, ptr %8) #7
  call void @llvm.lifetime.end.p0(i64 8, ptr %7) #7
  call void @llvm.lifetime.end.p0(i64 8, ptr %6) #7
  %71 = load i32, ptr %3, align 4
  ret i32 %71
}

; Function Attrs: nounwind uwtable
define hidden i32 @luaV_lessthan(ptr noundef %0, ptr noundef %1, ptr noundef %2) #0 {
  %4 = alloca i32, align 4
  %5 = alloca ptr, align 8
  %6 = alloca ptr, align 8
  %7 = alloca ptr, align 8
  %8 = alloca i32, align 4
  %9 = alloca i32, align 4
  store ptr %0, ptr %5, align 8, !tbaa !15
  store ptr %1, ptr %6, align 8, !tbaa !4
  store ptr %2, ptr %7, align 8, !tbaa !4
  call void @llvm.lifetime.start.p0(i64 4, ptr %8) #7
  %10 = load ptr, ptr %6, align 8, !tbaa !4
  %11 = getelementptr inbounds nuw %struct.lua_TValue, ptr %10, i32 0, i32 1
  %12 = load i32, ptr %11, align 8, !tbaa !9
  %13 = load ptr, ptr %7, align 8, !tbaa !4
  %14 = getelementptr inbounds nuw %struct.lua_TValue, ptr %13, i32 0, i32 1
  %15 = load i32, ptr %14, align 8, !tbaa !9
  %16 = icmp ne i32 %12, %15
  br i1 %16, label %17, label %22

17:                                               ; preds = %3
  %18 = load ptr, ptr %5, align 8, !tbaa !15
  %19 = load ptr, ptr %6, align 8, !tbaa !4
  %20 = load ptr, ptr %7, align 8, !tbaa !4
  %21 = call i32 @luaG_ordererror(ptr noundef %18, ptr noundef %19, ptr noundef %20)
  store i32 %21, ptr %4, align 4
  store i32 1, ptr %9, align 4
  br label %67

22:                                               ; preds = %3
  %23 = load ptr, ptr %6, align 8, !tbaa !4
  %24 = getelementptr inbounds nuw %struct.lua_TValue, ptr %23, i32 0, i32 1
  %25 = load i32, ptr %24, align 8, !tbaa !9
  %26 = icmp eq i32 %25, 3
  br i1 %26, label %27, label %36

27:                                               ; preds = %22
  %28 = load ptr, ptr %6, align 8, !tbaa !4
  %29 = getelementptr inbounds nuw %struct.lua_TValue, ptr %28, i32 0, i32 0
  %30 = load double, ptr %29, align 8, !tbaa !12
  %31 = load ptr, ptr %7, align 8, !tbaa !4
  %32 = getelementptr inbounds nuw %struct.lua_TValue, ptr %31, i32 0, i32 0
  %33 = load double, ptr %32, align 8, !tbaa !12
  %34 = fcmp olt double %30, %33
  %35 = zext i1 %34 to i32
  store i32 %35, ptr %4, align 4
  store i32 1, ptr %9, align 4
  br label %67

36:                                               ; preds = %22
  %37 = load ptr, ptr %6, align 8, !tbaa !4
  %38 = getelementptr inbounds nuw %struct.lua_TValue, ptr %37, i32 0, i32 1
  %39 = load i32, ptr %38, align 8, !tbaa !9
  %40 = icmp eq i32 %39, 4
  br i1 %40, label %41, label %51

41:                                               ; preds = %36
  %42 = load ptr, ptr %6, align 8, !tbaa !4
  %43 = getelementptr inbounds nuw %struct.lua_TValue, ptr %42, i32 0, i32 0
  %44 = load ptr, ptr %43, align 8, !tbaa !12
  %45 = load ptr, ptr %7, align 8, !tbaa !4
  %46 = getelementptr inbounds nuw %struct.lua_TValue, ptr %45, i32 0, i32 0
  %47 = load ptr, ptr %46, align 8, !tbaa !12
  %48 = call i32 @l_strcmp(ptr noundef %44, ptr noundef %47)
  %49 = icmp slt i32 %48, 0
  %50 = zext i1 %49 to i32
  store i32 %50, ptr %4, align 4
  store i32 1, ptr %9, align 4
  br label %67

51:                                               ; preds = %36
  %52 = load ptr, ptr %5, align 8, !tbaa !15
  %53 = load ptr, ptr %6, align 8, !tbaa !4
  %54 = load ptr, ptr %7, align 8, !tbaa !4
  %55 = call i32 @call_orderTM(ptr noundef %52, ptr noundef %53, ptr noundef %54, i32 noundef 13)
  store i32 %55, ptr %8, align 4, !tbaa !17
  %56 = icmp ne i32 %55, -1
  br i1 %56, label %57, label %59

57:                                               ; preds = %51
  %58 = load i32, ptr %8, align 4, !tbaa !17
  store i32 %58, ptr %4, align 4
  store i32 1, ptr %9, align 4
  br label %67

59:                                               ; preds = %51
  br label %60

60:                                               ; preds = %59
  br label %61

61:                                               ; preds = %60
  br label %62

62:                                               ; preds = %61
  %63 = load ptr, ptr %5, align 8, !tbaa !15
  %64 = load ptr, ptr %6, align 8, !tbaa !4
  %65 = load ptr, ptr %7, align 8, !tbaa !4
  %66 = call i32 @luaG_ordererror(ptr noundef %63, ptr noundef %64, ptr noundef %65)
  store i32 %66, ptr %4, align 4
  store i32 1, ptr %9, align 4
  br label %67

67:                                               ; preds = %62, %57, %41, %27, %17
  call void @llvm.lifetime.end.p0(i64 4, ptr %8) #7
  %68 = load i32, ptr %4, align 4
  ret i32 %68
}