; Function Attrs: nounwind uwtable
define hidden i32 @luaV_lessthan(ptr noundef %0, ptr noundef %1, ptr noundef %2) local_unnamed_addr #0 {
  %4 = getelementptr inbounds nuw i8, ptr %1, i64 8
  %5 = load i32, ptr %4, align 8, !tbaa !4
  %6 = getelementptr inbounds nuw i8, ptr %2, i64 8
  %7 = load i32, ptr %6, align 8, !tbaa !4
  %.not = icmp eq i32 %5, %7
  br i1 %.not, label %10, label %8

8:                                                ; preds = %3
  %9 = tail call i32 @luaG_ordererror(ptr noundef %0, ptr noundef nonnull %1, ptr noundef nonnull %2) #9
  br label %41

10:                                               ; preds = %3
  switch i32 %5, label %37 [
    i32 3, label %11
    i32 4, label %16
  ]

11:                                               ; preds = %10
  %12 = load double, ptr %1, align 8, !tbaa !9
  %13 = load double, ptr %2, align 8, !tbaa !9
  %14 = fcmp olt double %12, %13
  %15 = zext i1 %14 to i32
  br label %41

16:                                               ; preds = %10
  %17 = load ptr, ptr %1, align 8, !tbaa !9
  %18 = load ptr, ptr %2, align 8, !tbaa !9
  %19 = getelementptr inbounds nuw i8, ptr %17, i64 24
  %20 = getelementptr inbounds nuw i8, ptr %18, i64 24
  %21 = tail call i32 @strcoll(ptr noundef nonnull readonly %19, ptr noundef nonnull readonly %20) #10
  %.not52.i = icmp eq i32 %21, 0
  br i1 %.not52.i, label %.lr.ph.preheader.i, label %l_strcmp.exit

.lr.ph.preheader.i:                               ; preds = %16
  %22 = getelementptr inbounds nuw i8, ptr %18, i64 16
  %23 = load i64, ptr %22, align 8, !tbaa !9
  %24 = getelementptr inbounds nuw i8, ptr %17, i64 16
  %25 = load i64, ptr %24, align 8, !tbaa !9
  br label %.lr.ph.i

.lr.ph.i:                                         ; preds = %30, %.lr.ph.preheader.i
  %.02956.i = phi i64 [ %35, %30 ], [ %23, %.lr.ph.preheader.i ]
  %.03255.i = phi ptr [ %34, %30 ], [ %20, %.lr.ph.preheader.i ]
  %.03554.i = phi i64 [ %33, %30 ], [ %25, %.lr.ph.preheader.i ]
  %.03853.i = phi ptr [ %32, %30 ], [ %19, %.lr.ph.preheader.i ]
  %26 = tail call i64 @strlen(ptr noundef nonnull dereferenceable(1) %.03853.i) #10
  %27 = icmp eq i64 %26, %.02956.i
  br i1 %27, label %l_strcmp.exit, label %28

28:                                               ; preds = %.lr.ph.i
  %29 = icmp eq i64 %26, %.03554.i
  br i1 %29, label %l_strcmp.exit, label %30

30:                                               ; preds = %28
  %31 = add i64 %26, 1
  %32 = getelementptr inbounds nuw i8, ptr %.03853.i, i64 %31
  %33 = sub i64 %.03554.i, %31
  %34 = getelementptr inbounds nuw i8, ptr %.03255.i, i64 %31
  %35 = sub i64 %.02956.i, %31
  %36 = tail call i32 @strcoll(ptr noundef nonnull %32, ptr noundef %34) #10
  %.not.i = icmp eq i32 %36, 0
  br i1 %.not.i, label %.lr.ph.i, label %l_strcmp.exit

l_strcmp.exit:                                    ; preds = %28, %30, %.lr.ph.i, %16
  %.128.ph.i = phi i32 [ %21, %16 ], [ %36, %30 ], [ -1, %28 ], [ 0, %.lr.ph.i ]
  %.lobit = lshr i32 %.128.ph.i, 31
  br label %41

37:                                               ; preds = %10
  %38 = tail call fastcc i32 @call_orderTM(ptr noundef %0, ptr noundef nonnull %1, ptr noundef nonnull %2, i32 noundef 13)
  %.not20 = icmp eq i32 %38, -1
  br i1 %.not20, label %39, label %41

39:                                               ; preds = %37
  %40 = tail call i32 @luaG_ordererror(ptr noundef %0, ptr noundef nonnull %1, ptr noundef nonnull %2) #9
  br label %41

41:                                               ; preds = %37, %39, %l_strcmp.exit, %11, %8
  %.0 = phi i32 [ %9, %8 ], [ %15, %11 ], [ %.lobit, %l_strcmp.exit ], [ %40, %39 ], [ %38, %37 ]
  ret i32 %.0
}